; Function Attrs: mustprogress uwtable
define void @_ZNK10open_spiel9dou_dizhu13DouDizhuState12OriginalDealEv(ptr dead_on_unwind noalias writable sret(%"struct.std::array.23") align 4 captures(none) %0, ptr noundef nonnull readonly align 8 captures(none) dereferenceable(660) %1) local_unnamed_addr #3 align 2 personality ptr @__gxx_personality_v0 {
  %3 = alloca i64, align 8
  %4 = alloca i32, align 4
  %5 = alloca %"class.std::__cxx11::basic_string", align 8
  %6 = alloca i32, align 4
  %7 = getelementptr inbounds nuw i8, ptr %1, i64 32
  %8 = getelementptr inbounds nuw i8, ptr %1, i64 40
  %9 = load ptr, ptr %8, align 8
  %10 = load ptr, ptr %7, align 8
  %11 = ptrtoint ptr %9 to i64
  %12 = ptrtoint ptr %10 to i64
  %13 = sub i64 %11, %12
  %14 = ashr exact i64 %13, 4
  store i64 %14, ptr %3, align 8
  store i32 55, ptr %4, align 4
  %15 = icmp ugt i64 %14, 54
  br i1 %15, label %20, label %16

16:                                               ; preds = %2
  store i32 157, ptr %6, align 4
  call void @_ZN10open_spiel8internal11SpielStrCatIJRA138_KcRA2_S2_iS6_RA33_S2_RA17_S2_RA4_S2_RmRA19_S2_RiEEENSt7__cxx1112basic_stringIcSt11char_traitsIcESaIcEEEDpOT_(ptr dead_on_unwind nonnull writable sret(%"class.std::__cxx11::basic_string") align 8 %5, ptr noundef nonnull align 1 dereferenceable(138) @.str.11, ptr noundef nonnull align 1 dereferenceable(2) @.str.12, ptr noundef nonnull align 4 dereferenceable(4) %6, ptr noundef nonnull align 1 dereferenceable(2) @.str.13, ptr noundef nonnull align 1 dereferenceable(33) @.str.29, ptr noundef nonnull align 1 dereferenceable(17) @.str.15, ptr noundef nonnull align 1 dereferenceable(4) @.str.16, ptr noundef nonnull align 8 dereferenceable(8) %3, ptr noundef nonnull align 1 dereferenceable(19) @.str.30, ptr noundef nonnull align 4 dereferenceable(4) %4)
  invoke void @_ZN10open_spiel15SpielFatalErrorERKNSt7__cxx1112basic_stringIcSt11char_traitsIcESaIcEEE(ptr noundef nonnull align 8 dereferenceable(32) %5) #26
          to label %17 unwind label %18

17:                                               ; preds = %16
  unreachable

18:                                               ; preds = %16
  %19 = landingpad { ptr, i32 }
          cleanup
  call void @_ZNSt7__cxx1112basic_stringIcSt11char_traitsIcESaIcEED1Ev(ptr noundef nonnull align 8 dereferenceable(32) %5) #27
  resume { ptr, i32 } %19

20:                                               ; preds = %2
  tail call void @llvm.memset.p0.i64(ptr noundef nonnull align 4 dereferenceable(180) %0, i8 0, i64 180, i1 false)
  %21 = getelementptr inbounds nuw i8, ptr %1, i64 120
  br label %28

.preheader:                                       ; preds = %28
  %22 = getelementptr inbounds nuw i8, ptr %1, i64 124
  %23 = load i32, ptr %22, align 4
  %24 = sext i32 %23 to i64
  %25 = getelementptr inbounds [3 x %"struct.std::array.11"], ptr %0, i64 0, i64 %24
  %26 = getelementptr inbounds nuw i8, ptr %1, i64 64
  %27 = load ptr, ptr %26, align 8
  br label %46

28:                                               ; preds = %20, %28
  %indvars.iv = phi i64 [ 1, %20 ], [ %indvars.iv.next, %28 ]
  %29 = load i32, ptr %21, align 8
  %30 = trunc i64 %indvars.iv to i32
  %31 = add i32 %30, -1
  %32 = add nsw i32 %31, %29
  %33 = srem i32 %32, 3
  %34 = sext i32 %33 to i64
  %35 = getelementptr inbounds [3 x %"struct.std::array.11"], ptr %0, i64 0, i64 %34
  %36 = load ptr, ptr %7, align 8
  %37 = getelementptr inbounds nuw %"struct.open_spiel::State::PlayerAction", ptr %36, i64 %indvars.iv, i32 1
  %38 = load i64, ptr %37, align 8
  %39 = trunc i64 %38 to i32
  %40 = add i32 %39, -51
  %41 = tail call noundef i32 @_ZN10open_spiel9dou_dizhu10CardToRankEi(i32 noundef %40)
  %42 = sext i32 %41 to i64
  %43 = getelementptr inbounds [15 x i32], ptr %35, i64 0, i64 %42
  %44 = load i32, ptr %43, align 4
  %45 = add nsw i32 %44, 1
  store i32 %45, ptr %43, align 4
  %indvars.iv.next = add nuw nsw i64 %indvars.iv, 1
  %exitcond.not = icmp eq i64 %indvars.iv.next, 52
  br i1 %exitcond.not, label %.preheader, label %28, !llvm.loop !33

46:                                               ; preds = %.preheader, %46
  %indvars.iv13 = phi i64 [ 0, %.preheader ], [ %indvars.iv.next14, %46 ]
  %47 = getelementptr inbounds nuw i32, ptr %27, i64 %indvars.iv13
  %48 = load i32, ptr %47, align 4
  %49 = sext i32 %48 to i64
  %50 = getelementptr inbounds [15 x i32], ptr %25, i64 0, i64 %49
  %51 = load i32, ptr %50, align 4
  %52 = add nsw i32 %51, 1
  store i32 %52, ptr %50, align 4
  %indvars.iv.next14 = add nuw nsw i64 %indvars.iv13, 1
  %exitcond16.not = icmp eq i64 %indvars.iv.next14, 3
  br i1 %exitcond16.not, label %53, label %46, !llvm.loop !34

53:                                               ; preds = %46
  ret void
}